; Function Attrs: null_pointer_is_valid sspstrong uwtable
define internal noundef i32 @dissect_aim_tlv_value_dcinfo(ptr noundef %0, i16 zeroext %1, ptr noundef %2, ptr readnone captures(none) %3) #0 {
  %5 = load i32, ptr @ett_aim_dcinfo, align 4
  %6 = tail call ptr @proto_item_add_subtree(ptr noundef %0, i32 noundef %5)
  %7 = load i32, ptr @hf_aim_dcinfo_ip, align 4
  %8 = tail call ptr @proto_tree_add_item(ptr noundef %6, i32 noundef %7, ptr noundef %2, i32 noundef 0, i32 noundef 4, i32 noundef 0)
  %9 = load i32, ptr @hf_aim_dcinfo_tcpport, align 4
  %10 = tail call ptr @proto_tree_add_item(ptr noundef %6, i32 noundef %9, ptr noundef %2, i32 noundef 4, i32 noundef 4, i32 noundef 0)
  %11 = load i32, ptr @hf_aim_dcinfo_type, align 4
  %12 = tail call ptr @proto_tree_add_item(ptr noundef %6, i32 noundef %11, ptr noundef %2, i32 noundef 8, i32 noundef 1, i32 noundef 0)
  %13 = load i32, ptr @hf_aim_dcinfo_proto_version, align 4
  %14 = tail call ptr @proto_tree_add_item(ptr noundef %6, i32 noundef %13, ptr noundef %2, i32 noundef 9, i32 noundef 2, i32 noundef 0)
  %15 = load i32, ptr @hf_aim_dcinfo_auth_cookie, align 4
  %16 = tail call ptr @proto_tree_add_item(ptr noundef %6, i32 noundef %15, ptr noundef %2, i32 noundef 11, i32 noundef 4, i32 noundef 0)
  %17 = load i32, ptr @hf_aim_dcinfo_webport, align 4
  %18 = tail call ptr @proto_tree_add_item(ptr noundef %6, i32 noundef %17, ptr noundef %2, i32 noundef 13, i32 noundef 4, i32 noundef 0)
  %19 = load i32, ptr @hf_aim_dcinfo_client_future, align 4
  %20 = tail call ptr @proto_tree_add_item(ptr noundef %6, i32 noundef %19, ptr noundef %2, i32 noundef 17, i32 noundef 4, i32 noundef 0)
  %21 = load i32, ptr @hf_aim_dcinfo_last_info_update, align 4
  %22 = tail call ptr @proto_tree_add_item(ptr noundef %6, i32 noundef %21, ptr noundef %2, i32 noundef 21, i32 noundef 4, i32 noundef 0)
  %23 = load i32, ptr @hf_aim_dcinfo_last_ext_info_update, align 4
  %24 = tail call ptr @proto_tree_add_item(ptr noundef %6, i32 noundef %23, ptr noundef %2, i32 noundef 25, i32 noundef 4, i32 noundef 0)
  %25 = load i32, ptr @hf_aim_dcinfo_last_ext_status_update, align 4
  %26 = tail call ptr @proto_tree_add_item(ptr noundef %6, i32 noundef %25, ptr noundef %2, i32 noundef 29, i32 noundef 4, i32 noundef 0)
  %27 = load i32, ptr @hf_aim_dcinfo_unknown, align 4
  %28 = tail call ptr @proto_tree_add_item(ptr noundef %6, i32 noundef %27, ptr noundef %2, i32 noundef 33, i32 noundef 2, i32 noundef 0)
  ret i32 35
}